; Function Attrs: mustprogress nounwind uwtable
define internal fastcc void @"_ZNSt3__110unique_ptrINS_5tupleIJNS0_INS_15__thread_structENS_14default_deleteIS2_EEEEZN3tev8mainFuncERKNS_6vectorINS_12basic_stringIcNS_11char_traitsIcEENS_9allocatorIcEEEENSB_ISD_EEEEE3$_0EEENS3_ISJ_EEED2B8ne190000Ev"(ptr nocapture noundef nonnull align 8 dereferenceable(8) %0) unnamed_addr #1 align 2 {
  %2 = load ptr, ptr %0, align 8
  store ptr null, ptr %0, align 8
  %.not.i = icmp eq ptr %2, null
  br i1 %.not.i, label %"_ZNSt3__110unique_ptrINS_5tupleIJNS0_INS_15__thread_structENS_14default_deleteIS2_EEEEZN3tev8mainFuncERKNS_6vectorINS_12basic_stringIcNS_11char_traitsIcEENS_9allocatorIcEEEENSB_ISD_EEEEE3$_0EEENS3_ISJ_EEE5resetB8ne190000EPSJ_.exit", label %3

3:                                                ; preds = %1
  %4 = load ptr, ptr %2, align 8
  store ptr null, ptr %2, align 8
  %.not.i.i.i.i.i.i.i = icmp eq ptr %4, null
  br i1 %.not.i.i.i.i.i.i.i, label %"_ZNKSt3__114default_deleteINS_5tupleIJNS_10unique_ptrINS_15__thread_structENS0_IS3_EEEEZN3tev8mainFuncERKNS_6vectorINS_12basic_stringIcNS_11char_traitsIcEENS_9allocatorIcEEEENSB_ISD_EEEEE3$_0EEEEclB8ne190000EPSJ_.exit.i", label %_ZNKSt3__114default_deleteINS_15__thread_structEEclB8ne190000EPS1_.exit.i.i.i.i.i.i.i

_ZNKSt3__114default_deleteINS_15__thread_structEEclB8ne190000EPS1_.exit.i.i.i.i.i.i.i: ; preds = %3
  tail call void @_ZNSt3__115__thread_structD1Ev(ptr noundef nonnull align 8 dereferenceable(8) %4) #28
  tail call void @_ZdlPv(ptr noundef nonnull %4) #29
  br label %"_ZNKSt3__114default_deleteINS_5tupleIJNS_10unique_ptrINS_15__thread_structENS0_IS3_EEEEZN3tev8mainFuncERKNS_6vectorINS_12basic_stringIcNS_11char_traitsIcEENS_9allocatorIcEEEENSB_ISD_EEEEE3$_0EEEEclB8ne190000EPSJ_.exit.i"

"_ZNKSt3__114default_deleteINS_5tupleIJNS_10unique_ptrINS_15__thread_structENS0_IS3_EEEEZN3tev8mainFuncERKNS_6vectorINS_12basic_stringIcNS_11char_traitsIcEENS_9allocatorIcEEEENSB_ISD_EEEEE3$_0EEEEclB8ne190000EPSJ_.exit.i": ; preds = %_ZNKSt3__114default_deleteINS_15__thread_structEEclB8ne190000EPS1_.exit.i.i.i.i.i.i.i, %3
  tail call void @_ZdlPv(ptr noundef nonnull %2) #29
  br label %"_ZNSt3__110unique_ptrINS_5tupleIJNS0_INS_15__thread_structENS_14default_deleteIS2_EEEEZN3tev8mainFuncERKNS_6vectorINS_12basic_stringIcNS_11char_traitsIcEENS_9allocatorIcEEEENSB_ISD_EEEEE3$_0EEENS3_ISJ_EEE5resetB8ne190000EPSJ_.exit"

"_ZNSt3__110unique_ptrINS_5tupleIJNS0_INS_15__thread_structENS_14default_deleteIS2_EEEEZN3tev8mainFuncERKNS_6vectorINS_12basic_stringIcNS_11char_traitsIcEENS_9allocatorIcEEEENSB_ISD_EEEEE3$_0EEENS3_ISJ_EEE5resetB8ne190000EPSJ_.exit": ; preds = %1, %"_ZNKSt3__114default_deleteINS_5tupleIJNS_10unique_ptrINS_15__thread_structENS0_IS3_EEEEZN3tev8mainFuncERKNS_6vectorINS_12basic_stringIcNS_11char_traitsIcEENS_9allocatorIcEEEENSB_ISD_EEEEE3$_0EEEEclB8ne190000EPSJ_.exit.i"
  ret void
}